target datalayout = "e-m:e-p270:32:32-p271:32:32-p272:64:64-i64:64-i128:128-f80:128-n8:16:32:64-S128"
target triple = "x86_64-pc-linux-gnu"

%struct.lv_ll_t = type { i32, ptr, ptr }
%struct._lv_spangroup_t = type { %struct._lv_obj_t, i32, i32, i32, i32, %struct.lv_ll_t, i8 }
%struct._lv_obj_t = type { ptr, ptr, ptr, ptr, ptr, %struct.lv_area_t, i32, i16, i16 }
%struct.lv_area_t = type { i32, i32, i32, i32 }

; Function Attrs: nounwind uwtable
define void @lv_spangroup_set_overflow(ptr noundef %0, i32 noundef %1) #0 {
  %3 = alloca ptr, align 8
  %4 = alloca i32, align 4
  %5 = alloca ptr, align 8
  %6 = alloca i32, align 4
  store ptr %0, ptr %3, align 8, !tbaa !3
  store i32 %1, ptr %4, align 4, !tbaa !23
  br label %7

7:                                                ; preds = %2
  br label %8

8:                                                ; preds = %7
  call void @llvm.lifetime.start.p0(i64 8, ptr %5) #6
  %9 = load ptr, ptr %3, align 8, !tbaa !3
  store ptr %9, ptr %5, align 8, !tbaa !3
  %10 = load ptr, ptr %5, align 8, !tbaa !3
  %11 = getelementptr inbounds nuw %struct._lv_spangroup_t, ptr %10, i32 0, i32 6
  %12 = load i8, ptr %11, align 8
  %13 = lshr i8 %12, 2
  %14 = and i8 %13, 1
  %15 = zext i8 %14 to i32
  %16 = load i32, ptr %4, align 4, !tbaa !23
  %17 = icmp eq i32 %15, %16
  br i1 %17, label %18, label %19

18:                                               ; preds = %8
  store i32 1, ptr %6, align 4
  br label %34

19:                                               ; preds = %8
  %20 = load i32, ptr %4, align 4, !tbaa !23
  %21 = icmp uge i32 %20, 2
  br i1 %21, label %22, label %23

22:                                               ; preds = %19
  store i32 1, ptr %6, align 4
  br label %34

23:                                               ; preds = %19
  %24 = load i32, ptr %4, align 4, !tbaa !23
  %25 = load ptr, ptr %5, align 8, !tbaa !3
  %26 = getelementptr inbounds nuw %struct._lv_spangroup_t, ptr %25, i32 0, i32 6
  %27 = trunc i32 %24 to i8
  %28 = load i8, ptr %26, align 8
  %29 = and i8 %27, 1
  %30 = shl i8 %29, 2
  %31 = and i8 %28, -5
  %32 = or i8 %31, %30
  store i8 %32, ptr %26, align 8
  %33 = load ptr, ptr %3, align 8, !tbaa !3
  call void @lv_obj_invalidate(ptr noundef %33)
  store i32 0, ptr %6, align 4
  br label %34

34:                                               ; preds = %23, %22, %18
  call void @llvm.lifetime.end.p0(i64 8, ptr %5) #6
  %35 = load i32, ptr %6, align 4
  switch i32 %35, label %37 [
    i32 0, label %36
    i32 1, label %36
  ]

36:                                               ; preds = %34, %34
  ret void

37:                                               ; preds = %34
  unreachable
}