; Function Attrs: nounwind uwtable
define void @lv_spangroup_set_overflow(ptr noundef %0, i32 noundef %1) local_unnamed_addr #0 {
  %3 = getelementptr inbounds nuw i8, ptr %0, i64 104
  %4 = load i8, ptr %3, align 8
  %5 = lshr i8 %4, 2
  %6 = and i8 %5, 1
  %7 = zext nneg i8 %6 to i32
  %8 = icmp eq i32 %1, %7
  %9 = icmp ugt i32 %1, 1
  %or.cond = or i1 %9, %8
  br i1 %or.cond, label %15, label %10

10:                                               ; preds = %2
  %11 = trunc nuw nsw i32 %1 to i8
  %12 = shl nuw nsw i8 %11, 2
  %13 = and i8 %4, -5
  %14 = or disjoint i8 %13, %12
  store i8 %14, ptr %3, align 8
  tail call void @lv_obj_invalidate(ptr noundef nonnull %0) #8
  br label %15

15:                                               ; preds = %2, %10
  ret void
}